Certificate:
    Data:
        Version: 3 (0x2)
        Serial Number: 4097 (0x1001)
        Signature Algorithm: sha1WithRSAEncryption
        Issuer: C=CA, ST=Ontario, L=Toronto, O=Widgits, OU=Janitorial, CN=Mango/emailAddress=mango@email.com
        Validity
            Not Before: Dec  4 03:31:10 2020 GMT
            Not After : Dec  4 03:31:10 2021 GMT
        Subject: C=CA, ST=ON, L=sauga, O=uni, OU=55, CN=david/emailAddress=david2@hotmail.com
        Subject Public Key Info:
            Public Key Algorithm: rsaEncryption
                RSA Public-Key: (1024 bit)
                Modulus:
                    00:c4:90:97:78:ed:0c:69:1b:b0:40:b9:c2:99:54:
                    da:d0:59:96:b2:85:30:86:a7:93:b1:e3:4a:47:da:
                    28:8d:d6:d7:d0:f6:9d:4c:ae:ca:b6:dd:5c:b4:15:
                    b4:1c:46:6e:83:25:a5:6a:42:1c:73:72:19:a0:2e:
                    93:c9:10:a8:bf:14:58:c6:c8:bf:eb:60:0a:82:cc:
                    c4:9b:33:11:ad:de:d7:a8:ca:be:b9:d7:05:b3:06:
                    34:5c:85:03:57:cd:50:5a:94:83:f4:22:06:b9:51:
                    16:7e:d3:36:60:39:06:35:5b:2a:39:e6:5b:c1:04:
                    7d:ae:73:31:48:ee:3c:5f:e7
                Exponent: 65537 (0x10001)
        X509v3 extensions:
            X509v3 Basic Constraints: 
                CA:FALSE
            Netscape Comment: 
                OpenSSL Generated Certificate
            X509v3 Subject Key Identifier: 
                25:56:E7:3A:A7:01:B0:D3:73:1B:8D:47:46:01:2F:89:CD:24:BB:72
            X509v3 Authority Key Identifier: 
                keyid:B3:98:79:AB:FA:BA:DE:95:A9:81:23:EE:F1:E3:09:A6:B0:44:28:74

    Signature Algorithm: sha1WithRSAEncryption
         58:e3:d8:06:b2:64:e6:2f:0c:d4:93:22:cc:55:ac:9b:7b:1c:
         ce:90:97:16:79:d6:9c:7b:05:0d:b7:44:27:99:f3:a8:74:54:
         ad:2f:65:c0:df:3e:b1:ea:16:44:da:d6:19:32:34:56:79:34:
         b6:f4:50:53:69:31:cc:57:43:fd:16:e9:04:ca:29:a8:03:bc:
         a9:bf:13:e6:a6:7f:4a:9c:c3:18:50:65:a3:03:69:d5:ce:49:
         55:ac:e3:05:c6:e9:72:65:11:8e:45:7d:10:a1:28:9c:a9:50:
         9a:38:71:ad:25:83:61:7f:d3:94:91:3b:14:93:4a:19:42:c4:
         43:06
-----BEGIN CERTIFICATE-----
MIIC8zCCAlygAwIBAgICEAEwDQYJKoZIhvcNAQEFBQAwgYgxCzAJBgNVBAYTAkNB
MRAwDgYDVQQIEwdPbnRhcmlvMRAwDgYDVQQHEwdUb3JvbnRvMRAwDgYDVQQKEwdX
aWRnaXRzMRMwEQYDVQQLEwpKYW5pdG9yaWFsMQ4wDAYDVQQDEwVNYW5nbzEeMBwG
CSqGSIb3DQEJARYPbWFuZ29AZW1haWwuY29tMB4XDTIwMTIwNDAzMzExMFoXDTIx
MTIwNDAzMzExMFoweDELMAkGA1UEBhMCQ0ExCzAJBgNVBAgMAk9OMQ4wDAYDVQQH
DAVzYXVnYTEMMAoGA1UECgwDdW5pMQswCQYDVQQLDAI1NTEOMAwGA1UEAwwFZGF2
aWQxITAfBgkqhkiG9w0BCQEWEmRhdmlkMkBob3RtYWlsLmNvbTCBnzANBgkqhkiG
9w0BAQEFAAOBjQAwgYkCgYEAxJCXeO0MaRuwQLnCmVTa0FmWsoUwhqeTseNKR9oo
jdbX0PadTK7Ktt1ctBW0HEZugyWlakIcc3IZoC6TyRCovxRYxsi/62AKgszEmzMR
rd7XqMq+udcFswY0XIUDV81QWpSD9CIGuVEWftM2YDkGNVsqOeZbwQR9rnMxSO48
X+cCAwEAAaN7MHkwCQYDVR0TBAIwADAsBglghkgBhvhCAQ0EHxYdT3BlblNTTCBH
ZW5lcmF0ZWQgQ2VydGlmaWNhdGUwHQYDVR0OBBYEFCVW5zqnAbDTcxuNR0YBL4nN
JLtyMB8GA1UdIwQYMBaAFLOYeav6ut6VqYEj7vHjCaawRCh0MA0GCSqGSIb3DQEB
BQUAA4GBAFjj2AayZOYvDNSTIsxVrJt7HM6QlxZ51px7BQ23RCeZ86h0VK0vZcDf
PrHqFkTa1hkyNFZ5NLb0UFNpMcxXQ/0W6QTKKagDvKm/E+amf0qcwxhQZaMDadXO
SVWs4wXG6XJlEY5FfRChKJypUJo4ca0lg2F/05SROxSTShlCxEMG
-----END CERTIFICATE-----
