Certificate:
    Data:
        Version: 3 (0x2)
        Serial Number: 4096 (0x1000)
        Signature Algorithm: sha1WithRSAEncryption
        Issuer: C=CA, ST=ON, L=sauga, O=uni, OU=55, CN=david/emailAddress=david@hotmail.com
        Validity
            Not Before: Nov 30 04:20:19 2020 GMT
            Not After : Nov 30 04:20:19 2021 GMT
        Subject: C=CA, ST=Ontario, L=Oshawa, O=Broken Leg Ltd., OU=IT, CN=cast.brokenleg.com/emailAddress=femur@brokenleg.com
        Subject Public Key Info:
            Public Key Algorithm: rsaEncryption
                RSA Public-Key: (1024 bit)
                Modulus:
                    00:be:b4:77:41:cd:9d:3f:8a:12:12:45:0d:2a:dc:
                    e5:8d:7f:78:b5:58:44:97:71:3d:43:bd:a1:1d:b3:
                    45:f1:c6:5f:01:48:2e:c6:63:fa:dc:37:4e:9d:9e:
                    f9:60:ee:9a:27:92:19:a8:62:23:8e:04:cb:0a:18:
                    84:48:12:ea:9f:e5:41:24:5a:e3:49:36:1c:d1:81:
                    72:46:5f:91:43:89:23:51:d1:83:91:54:f0:14:e9:
                    fc:e6:4b:31:99:b4:f8:3c:08:71:a7:be:b5:32:41:
                    22:f9:ec:f5:86:ba:a6:ca:bb:60:8e:75:e4:4a:8a:
                    78:54:1e:fa:91:48:00:1a:d3
                Exponent: 65537 (0x10001)
        X509v3 extensions:
            X509v3 Basic Constraints: 
                CA:FALSE
            Netscape Comment: 
                OpenSSL Generated Certificate
            X509v3 Subject Key Identifier: 
                9F:55:5E:D1:38:5A:40:D4:D9:3C:34:06:BA:22:87:F9:10:67:91:BF
            X509v3 Authority Key Identifier: 
                keyid:4B:05:73:3D:40:19:E1:E6:68:F9:80:F3:01:0B:41:73:D1:5E:29:AB

    Signature Algorithm: sha1WithRSAEncryption
         3e:5d:2f:d6:69:45:e2:66:52:fe:87:ac:43:1d:d5:cf:32:f8:
         63:57:02:15:eb:ae:90:1c:d5:91:c8:d3:e4:10:f2:c2:54:46:
         3a:00:bd:ec:f0:11:d0:36:3e:4f:16:fa:e2:55:68:d7:3a:50:
         af:17:91:fa:0d:2d:a2:55:22:2f:81:95:20:7a:c7:71:db:13:
         bb:db:1b:bc:d7:bd:b6:af:a8:a3:1b:f9:35:bf:d6:74:80:9f:
         65:89:af:86:87:06:7e:b4:f8:70:ed:82:21:10:bb:6a:65:f6:
         2e:35:b0:99:a1:14:47:f6:83:ad:5f:5f:67:b7:f3:78:59:2c:
         13:4a
-----BEGIN CERTIFICATE-----
MIIDAjCCAmugAwIBAgICEAAwDQYJKoZIhvcNAQEFBQAwdzELMAkGA1UEBhMCQ0Ex
CzAJBgNVBAgTAk9OMQ4wDAYDVQQHEwVzYXVnYTEMMAoGA1UEChMDdW5pMQswCQYD
VQQLEwI1NTEOMAwGA1UEAxMFZGF2aWQxIDAeBgkqhkiG9w0BCQEWEWRhdmlkQGhv
dG1haWwuY29tMB4XDTIwMTEzMDA0MjAxOVoXDTIxMTEzMDA0MjAxOVowgZgxCzAJ
BgNVBAYTAkNBMRAwDgYDVQQIDAdPbnRhcmlvMQ8wDQYDVQQHDAZPc2hhd2ExGDAW
BgNVBAoMD0Jyb2tlbiBMZWcgTHRkLjELMAkGA1UECwwCSVQxGzAZBgNVBAMMEmNh
c3QuYnJva2VubGVnLmNvbTEiMCAGCSqGSIb3DQEJARYTZmVtdXJAYnJva2VubGVn
LmNvbTCBnzANBgkqhkiG9w0BAQEFAAOBjQAwgYkCgYEAvrR3Qc2dP4oSEkUNKtzl
jX94tVhEl3E9Q72hHbNF8cZfAUguxmP63DdOnZ75YO6aJ5IZqGIjjgTLChiESBLq
n+VBJFrjSTYc0YFyRl+RQ4kjUdGDkVTwFOn85ksxmbT4PAhxp761MkEi+ez1hrqm
yrtgjnXkSop4VB76kUgAGtMCAwEAAaN7MHkwCQYDVR0TBAIwADAsBglghkgBhvhC
AQ0EHxYdT3BlblNTTCBHZW5lcmF0ZWQgQ2VydGlmaWNhdGUwHQYDVR0OBBYEFJ9V
XtE4WkDU2Tw0Broih/kQZ5G/MB8GA1UdIwQYMBaAFEsFcz1AGeHmaPmA8wELQXPR
XimrMA0GCSqGSIb3DQEBBQUAA4GBAD5dL9ZpReJmUv6HrEMd1c8y+GNXAhXrrpAc
1ZHI0+QQ8sJURjoAvezwEdA2Pk8W+uJVaNc6UK8XkfoNLaJVIi+BlSB6x3HbE7vb
G7zXvbavqKMb+TW/1nSAn2WJr4aHBn60+HDtgiEQu2pl9i41sJmhFEf2g61fX2e3
83hZLBNK
-----END CERTIFICATE-----
