Certificate:
    Data:
        Version: 3 (0x2)
        Serial Number: 4097 (0x1001)
        Signature Algorithm: sha1WithRSAEncryption
        Issuer: C=CA, ST=ON, L=sauga, O=uni, OU=55, CN=david/emailAddress=david@hotmail.com
        Validity
            Not Before: Dec  4 03:32:45 2020 GMT
            Not After : Dec  4 03:32:45 2021 GMT
        Subject: C=RU, ST=Moscow, L=Kremlin, O=VodkaInc, OU=Brewers, CN=mango/emailAddress=mango@email.com
        Subject Public Key Info:
            Public Key Algorithm: rsaEncryption
                RSA Public-Key: (1024 bit)
                Modulus:
                    00:e0:cd:ec:53:0d:c7:36:af:86:a1:66:e2:a6:7c:
                    e7:23:32:cb:18:f3:18:76:11:35:dd:2e:3d:45:dc:
                    bf:13:0c:67:b8:f1:26:20:45:35:78:f4:37:ed:2d:
                    e7:98:23:91:ab:64:b4:16:91:87:7b:5f:24:65:01:
                    32:c9:35:b0:42:be:cc:7d:55:c0:e4:b9:7e:15:31:
                    e2:7b:db:2a:c0:91:93:1a:7b:5b:08:7e:8d:67:3f:
                    c3:f1:68:c9:b9:51:93:5d:bd:50:18:47:0a:7b:5a:
                    e1:22:30:af:08:49:49:3a:f9:4b:ee:99:7d:09:14:
                    40:2d:72:66:3a:5c:f4:79:61
                Exponent: 65537 (0x10001)
        X509v3 extensions:
            X509v3 Basic Constraints: 
                CA:FALSE
            Netscape Comment: 
                OpenSSL Generated Certificate
            X509v3 Subject Key Identifier: 
                B2:CD:95:9E:03:83:42:B0:B2:30:08:97:42:D2:8F:C9:A3:04:57:A2
            X509v3 Authority Key Identifier: 
                keyid:4B:05:73:3D:40:19:E1:E6:68:F9:80:F3:01:0B:41:73:D1:5E:29:AB

    Signature Algorithm: sha1WithRSAEncryption
         8f:e6:c5:0a:5b:b8:e5:39:96:dd:4f:68:ef:fe:4a:de:9a:25:
         f7:bd:ed:d9:67:61:bc:cc:99:38:f9:6e:d1:d2:a5:88:0f:1a:
         a8:97:0e:f0:28:38:eb:c0:d1:dc:1a:e4:65:32:97:e8:bf:06:
         a9:ce:0c:50:ff:78:b6:68:45:4f:73:14:91:c1:7e:9b:7d:43:
         79:2b:84:a7:52:e4:86:df:c7:45:89:78:15:06:8b:2a:19:be:
         d6:b4:94:e2:58:4b:5c:08:75:4a:5f:57:a3:65:d3:5f:3e:01:
         13:5d:5a:96:68:cc:ba:8c:43:e7:15:47:4f:01:2d:73:f3:61:
         c1:d9
-----BEGIN CERTIFICATE-----
MIIC7zCCAligAwIBAgICEAEwDQYJKoZIhvcNAQEFBQAwdzELMAkGA1UEBhMCQ0Ex
CzAJBgNVBAgTAk9OMQ4wDAYDVQQHEwVzYXVnYTEMMAoGA1UEChMDdW5pMQswCQYD
VQQLEwI1NTEOMAwGA1UEAxMFZGF2aWQxIDAeBgkqhkiG9w0BCQEWEWRhdmlkQGhv
dG1haWwuY29tMB4XDTIwMTIwNDAzMzI0NVoXDTIxMTIwNDAzMzI0NVowgYUxCzAJ
BgNVBAYTAlJVMQ8wDQYDVQQIDAZNb3Njb3cxEDAOBgNVBAcMB0tyZW1saW4xETAP
BgNVBAoMCFZvZGthSW5jMRAwDgYDVQQLDAdCcmV3ZXJzMQ4wDAYDVQQDDAVtYW5n
bzEeMBwGCSqGSIb3DQEJARYPbWFuZ29AZW1haWwuY29tMIGfMA0GCSqGSIb3DQEB
AQUAA4GNADCBiQKBgQDgzexTDcc2r4ahZuKmfOcjMssY8xh2ETXdLj1F3L8TDGe4
8SYgRTV49DftLeeYI5GrZLQWkYd7XyRlATLJNbBCvsx9VcDkuX4VMeJ72yrAkZMa
e1sIfo1nP8PxaMm5UZNdvVAYRwp7WuEiMK8ISUk6+UvumX0JFEAtcmY6XPR5YQID
AQABo3sweTAJBgNVHRMEAjAAMCwGCWCGSAGG+EIBDQQfFh1PcGVuU1NMIEdlbmVy
YXRlZCBDZXJ0aWZpY2F0ZTAdBgNVHQ4EFgQUss2VngODQrCyMAiXQtKPyaMEV6Iw
HwYDVR0jBBgwFoAUSwVzPUAZ4eZo+YDzAQtBc9FeKaswDQYJKoZIhvcNAQEFBQAD
gYEAj+bFClu45TmW3U9o7/5K3pol973t2WdhvMyZOPlu0dKliA8aqJcO8Cg468DR
3BrkZTKX6L8Gqc4MUP94tmhFT3MUkcF+m31DeSuEp1Lkht/HRYl4FQaLKhm+1rSU
4lhLXAh1Sl9Xo2XTXz4BE11almjMuoxD5xVHTwEtc/Nhwdk=
-----END CERTIFICATE-----
